(dp0
S'2017-04-09'
p1
cnumpy.core.multiarray
scalar
p2
(cnumpy
dtype
p3
(S'f8'
p4
I0
I1
tp5
Rp6
(I3
S'<'
p7
NNNI-1
I-1
I0
tp8
bS'f\xcb\x96-[\xeaE@'
p9
tp10
Rp11
sS'2016-05-17'
p12
g2
(g6
S'\x83\xdb\x95\x81\x7fG(@'
p13
tp14
Rp15
sS'2017-04-30'
p16
g2
(g6
S'9\xbe;\xeb\x96^S@'
p17
tp18
Rp19
sS'2016-05-16'
p20
g2
(g6
S'\xb6K)\xa2\x12m%@'
p21
tp22
Rp23
sS'2017-11-17'
p24
g2
(g6
S'\x9fS\x95\xa6\xca\xaft@'
p25
tp26
Rp27
sS'2017-11-16'
p28
g2
(g6
S'/\xfa\x0c\x9cH\x8at@'
p29
tp30
Rp31
sS'2017-11-15'
p32
g2
(g6
S'\xdeW\xaa\x83\x9a\xd5t@'
p33
tp34
Rp35
sS'2017-11-14'
p36
g2
(g6
S'\xec\x847\t\xf7\xadt@'
p37
tp38
Rp39
sS'2017-11-13'
p40
g2
(g6
S'y\xfbx\x9d\xdc\xbbs@'
p41
tp42
Rp43
sS'2017-11-12'
p44
g2
(g6
S'\xe1\x87\x8a\xc6IKs@'
p45
tp46
Rp47
sS'2017-11-11'
p48
g2
(g6
S'f\x16\x12\xbd\x9dis@'
p49
tp50
Rp51
sS'2017-11-10'
p52
g2
(g6
S'\xeb\x18\xd1X\x96\x06s@'
p53
tp54
Rp55
sS'2017-07-30'
p56
g2
(g6
S'\xd3\xb3\x80}\xfd\xa5h@'
p57
tp58
Rp59
sS'2017-07-31'
p60
g2
(g6
S'\x99!ds\x82\xe2h@'
p61
tp62
Rp63
sS'2017-07-19'
p64
g2
(g6
S"\x94'\xea\xc55\xc5j@"
p65
tp66
Rp67
sS'2016-05-27'
p68
g2
(g6
S' \xf3\x9f\xb3\x9b\x1e&@'
p69
tp70
Rp71
sS'2017-10-06'
p72
g2
(g6
S'\xf4\xd7V\xb4\x06\xd6r@'
p73
tp74
Rp75
sS'2016-08-31'
p76
g2
(g6
S"\x83v\x97a\xa8\x87'@"
p77
tp78
Rp79
sS'2017-06-09'
p80
g2
(g6
S'\xe9\x82a\xa2\xb9 q@'
p81
tp82
Rp83
sS'2017-04-19'
p84
g2
(g6
S'\x9cr\x8a\xb2\xde\xabH@'
p85
tp86
Rp87
sS'2017-04-18'
p88
g2
(g6
S'\xc3\x8d<\xdc\xc8\xc3H@'
p89
tp90
Rp91
sS'2016-09-08'
p92
g2
(g6
S't\xda@\xa7\r\x98&@'
p93
tp94
Rp95
sS'2016-09-09'
p96
g2
(g6
S"\xb8\xa4\xa7\t]F'@"
p97
tp98
Rp99
sS'2016-09-04'
p100
g2
(g6
S" \xe6\x8fo\xe3\xae'@"
p101
tp102
Rp103
sS'2016-09-05'
p104
g2
(g6
S"\xdd\xdd\xdd\xdd\xdd\x9d'@"
p105
tp106
Rp107
sS'2016-09-06'
p108
g2
(g6
S"\xe8\xb4\x81N\x1bh'@"
p109
tp110
Rp111
sS'2016-09-07'
p112
g2
(g6
S"c\xb1!\x16\x1bb'@"
p113
tp114
Rp115
sS'2016-09-01'
p116
g2
(g6
S'v\x11\xabD\xde\xb7(@'
p117
tp118
Rp119
sS'2016-09-02'
p120
g2
(g6
S'\xe2z\x14\xaeG\x91(@'
p121
tp122
Rp123
sS'2016-09-03'
p124
g2
(g6
S"u\x11\xe9P!\xf7'@"
p125
tp126
Rp127
sS'2016-12-04'
p128
g2
(g6
S'\xff\x92\xe5/Y>\x1e@'
p129
tp130
Rp131
sS'2016-05-26'
p132
g2
(g6
S'Q\xf9\x1f\xaf\xea\xb5(@'
p133
tp134
Rp135
sS'2016-12-06'
p136
g2
(g6
S'\x91\xd0\x83&\xfd\xfe\x1c@'
p137
tp138
Rp139
sS'2016-12-07'
p140
g2
(g6
S'\x0f\x0f\x0f\x0f\x0f\x8f @'
p141
tp142
Rp143
sS'2017-04-11'
p144
g2
(g6
S'yN\x1c\xcb\xfd\xffE@'
p145
tp146
Rp147
sS'2016-12-01'
p148
g2
(g6
S'\x8f\xc2\xf5(\\\xd0 @'
p149
tp150
Rp151
sS'2016-12-02'
p152
g2
(g6
S'\x9ds\xc2\xaf\x84\xd3\x1e@'
p153
tp154
Rp155
sS'2016-12-03'
p156
g2
(g6
S'\xe3\xc2\xc7\x15\xf6\xfa\x1f@'
p157
tp158
Rp159
sS'2017-01-30'
p160
g2
(g6
S'\xbb\xd9\x04\x15[U%@'
p161
tp162
Rp163
sS'2017-01-31'
p164
g2
(g6
S'\xfa\x0b\xd4\xee4p%@'
p165
tp166
Rp167
sS'2016-12-08'
p168
g2
(g6
S'\xd2\xf2{\xb0\xa6\x10!@'
p169
tp170
Rp171
sS'2016-05-24'
p172
g2
(g6
S'\x11\xa3\xd1J\xce\x99)@'
p173
tp174
Rp175
sS'2016-05-25'
p176
g2
(g6
S'\xee\x9a\xe9\xae\x99\xee(@'
p177
tp178
Rp179
sS'2016-05-22'
p180
g2
(g6
S'\xfe\x19\xd3d\x809,@'
p181
tp182
Rp183
sS'2016-05-23'
p184
g2
(g6
S'\xfb\xc5\x92_,\x8d+@'
p185
tp186
Rp187
sS'2016-05-20'
p188
g2
(g6
S'\x1f\xf3\xe01\x0f\xfe+@'
p189
tp190
Rp191
sS'2016-05-21'
p192
g2
(g6
S"i'\x89v\x92h+@"
p193
tp194
Rp195
sS'2017-08-24'
p196
g2
(g6
S'S\xaaj\xfaQ*t@'
p197
tp198
Rp199
sS'2017-08-25'
p200
g2
(g6
S'\xefo\x95\x88\xd5\xc5t@'
p201
tp202
Rp203
sS'2017-08-26'
p204
g2
(g6
S'\rt\xda@\xa7\xb5t@'
p205
tp206
Rp207
sS'2017-08-27'
p208
g2
(g6
S'\x12\xb2\x82\xa3tTu@'
p209
tp210
Rp211
sS'2016-05-31'
p212
g2
(g6
S'\x84\xa7\xd4\xa4\xb9$+@'
p213
tp214
Rp215
sS'2016-05-30'
p216
g2
(g6
S'\x10w\x8b\xc1\xdd\x13)@'
p217
tp218
Rp219
sS'2017-08-22'
p220
g2
(g6
S'\xc0\xac\x1c\xb9\xadYs@'
p221
tp222
Rp223
sS'2017-08-23'
p224
g2
(g6
S'\xb6 TW\xf9\xf3s@'
p225
tp226
Rp227
sS'2017-03-03'
p228
g2
(g6
S'y\xc6\xe7&R\x853@'
p229
tp230
Rp231
sS'2017-03-02'
p232
g2
(g6
S'\xd1\xeb\xd3\xe5\x91\x0e3@'
p233
tp234
Rp235
sS'2017-03-01'
p236
g2
(g6
S'\x1b\x07\xee\xa5\xb6&1@'
p237
tp238
Rp239
sS'2017-05-20'
p240
g2
(g6
S'\x01\x08a\xfb\rI_@'
p241
tp242
Rp243
sS'2017-08-28'
p244
g2
(g6
S'{A\x91\x05nzu@'
p245
tp246
Rp247
sS'2017-08-29'
p248
g2
(g6
S'Q\xe3\xbeSA\xecv@'
p249
tp250
Rp251
sS'2017-03-05'
p252
g2
(g6
S'\xd1\xe6\xb1)\xa5\xcd2@'
p253
tp254
Rp255
sS'2017-03-04'
p256
g2
(g6
S'\xb9p".\xed\xdc2@'
p257
tp258
Rp259
sS'2016-05-19'
p260
g2
(g6
S'\xa0\xb9ZM\xe61,@'
p261
tp262
Rp263
sS'2016-05-18'
p264
g2
(g6
S'\x1cb@:\x96\xb2*@'
p265
tp266
Rp267
sS'2016-11-23'
p268
g2
(g6
S'\x84\x8f\xd9\x13R\xcf#@'
p269
tp270
Rp271
sS'2016-11-22'
p272
g2
(g6
S'e8\xd4\xb2\xa7\xce#@'
p273
tp274
Rp275
sS'2016-11-21'
p276
g2
(g6
S'[\xabl8bZ#@'
p277
tp278
Rp279
sS'2016-11-20'
p280
g2
(g6
S'\xaeG\xe1z\x14.#@'
p281
tp282
Rp283
sS'2016-11-27'
p284
g2
(g6
S'*z\xd8\x1b\x95""@'
p285
tp286
Rp287
sS'2016-11-26'
p288
g2
(g6
S'\xb5\x8aI\xab\x98\xb4"@'
p289
tp290
Rp291
sS'2016-11-25'
p292
g2
(g6
S'-\xee\x04q2\xc9"@'
p293
tp294
Rp295
sS'2016-11-24'
p296
g2
(g6
S'\xa1dD\xeb\x03\xb9"@'
p297
tp298
Rp299
sS'2016-11-29'
p300
g2
(g6
S'\xb9\x04\xb2\x86\xd1~ @'
p301
tp302
Rp303
sS'2016-11-28'
p304
g2
(g6
S'\x18\xa9\xc4}\x0f\xab!@'
p305
tp306
Rp307
sS'2016-12-09'
p308
g2
(g6
S'\xe1\x0c|\x08i\xcb @'
p309
tp310
Rp311
sS'2017-05-30'
p312
g2
(g6
S'jJ\x8a\x9cx\xe6j@'
p313
tp314
Rp315
sS'2017-05-31'
p316
g2
(g6
S'\xffm\xefi\x83 l@'
p317
tp318
Rp319
sS'2017-06-15'
p320
g2
(g6
S'\xa9?f\xf0\xc6Bs@'
p321
tp322
Rp323
sS'2017-11-26'
p324
g2
(g6
S'\t\xf8\xe6\xd5DW|@'
p325
tp326
Rp327
sS'2017-11-24'
p328
g2
(g6
S'\xb5\xe8\xe7s\x82-|@'
p329
tp330
Rp331
sS'2017-11-25'
p332
g2
(g6
S'\x02@r\xed\x1f,}@'
p333
tp334
Rp335
sS'2017-11-22'
p336
g2
(g6
S'\xb6,\x1a\xd4\xb24w@'
p337
tp338
Rp339
sS'2017-11-23'
p340
g2
(g6
S'\xe8;\x85\x1bBsy@'
p341
tp342
Rp343
sS'2017-11-20'
p344
g2
(g6
S'\x89\x17\xf4\x0e\xa7\xb7v@'
p345
tp346
Rp347
sS'2017-11-21'
p348
g2
(g6
S'\xd77#\x92+\xcbv@'
p349
tp350
Rp351
sS'2016-10-31'
p352
g2
(g6
S'\xe6\x8a\xe1K\xf1G&@'
p353
tp354
Rp355
sS'2016-10-30'
p356
g2
(g6
S'/\xb0V\xa1\xd0Y&@'
p357
tp358
Rp359
sS'2017-04-06'
p360
g2
(g6
S's\x8c\x07\xbf\xb3\xe0E@'
p361
tp362
Rp363
sS'2017-06-28'
p364
g2
(g6
S'S\x87 \xfc(\xe8r@'
p365
tp366
Rp367
sS'2017-06-29'
p368
g2
(g6
S'\x9a\xb2\r\x05\x12\xddr@'
p369
tp370
Rp371
sS'2017-04-07'
p372
g2
(g6
S'_\xa7\xef7\x80\x98E@'
p373
tp374
Rp375
sS'2017-09-01'
p376
g2
(g6
S'f\xb2\xect;fx@'
p377
tp378
Rp379
sS'2016-09-28'
p380
g2
(g6
S'\xed|?5^\xba*@'
p381
tp382
Rp383
sS'2017-06-22'
p384
g2
(g6
S'\x82\xc3\x8b\xc7\xdc\xffs@'
p385
tp386
Rp387
sS'2016-09-29'
p388
g2
(g6
S'8\x04\xd1\x9djw*@'
p389
tp390
Rp391
sS'2017-06-23'
p392
g2
(g6
S'\xd0\x1e\x1a\x89Llt@'
p393
tp394
Rp395
sS'2017-06-20'
p396
g2
(g6
S'\x82)\xc3C=\xe8u@'
p397
tp398
Rp399
sS'2017-06-21'
p400
g2
(g6
S'\xca\x04\xe7\x15z\xb4s@'
p401
tp402
Rp403
sS'2017-06-26'
p404
g2
(g6
S'\xe4y\xdb#\xa9hn@'
p405
tp406
Rp407
sS'2017-10-03'
p408
g2
(g6
S'\x8c\xb2&f\x95:r@'
p409
tp410
Rp411
sS'2017-06-24'
p412
g2
(g6
S'\x92\xae7k6js@'
p413
tp414
Rp415
sS'2017-10-02'
p416
g2
(g6
S'\xa6\x18\xf8\\\x86\x99r@'
p417
tp418
Rp419
sS'2017-06-25'
p420
g2
(g6
S'\xc2r\x90zm\xa8q@'
p421
tp422
Rp423
sS'2017-10-01'
p424
g2
(g6
S'\xfe\xe7\xd4i\xbe\xb8r@'
p425
tp426
Rp427
sS'2017-10-14'
p428
g2
(g6
S'\x0eY\x02\xd0\tNu@'
p429
tp430
Rp431
sS'2017-10-15'
p432
g2
(g6
S'\x996\x07\xe6\xcd\xc5t@'
p433
tp434
Rp435
sS'2017-10-16'
p436
g2
(g6
S'\xf66\xcd\xbb\xc1\x14u@'
p437
tp438
Rp439
sS'2017-10-17'
p440
g2
(g6
S'\xc3\x1d\xcc\xcd]\xdes@'
p441
tp442
Rp443
sS'2016-06-23'
p444
g2
(g6
S'\x89\xf40(\xe1\xae*@'
p445
tp446
Rp447
sS'2017-10-11'
p448
g2
(g6
S'1R\x0e\xe8E\xdfr@'
p449
tp450
Rp451
sS'2017-10-12'
p452
g2
(g6
S'u"\xe1\x16 \x00s@'
p453
tp454
Rp455
sS'2017-10-13'
p456
g2
(g6
S'HlO\xa3x\xa8t@'
p457
tp458
Rp459
sS'2017-06-04'
p460
g2
(g6
S']^\xa6H\x815n@'
p461
tp462
Rp463
sS'2017-10-07'
p464
g2
(g6
S'\xb1\xf2R8\tXs@'
p465
tp466
Rp467
sS'2017-06-06'
p468
g2
(g6
S'Fg%\xe5\xafAp@'
p469
tp470
Rp471
sS'2017-06-07'
p472
g2
(g6
S'\xf1\x97\x91\xe2\x1c\x0fp@'
p473
tp474
Rp475
sS'2017-10-18'
p476
g2
(g6
S'\xd0\x8d2\xe1\xf7\x03s@'
p477
tp478
Rp479
sS'2017-10-19'
p480
g2
(g6
S'\xce\x9b\xa1\x8b\x8aGs@'
p481
tp482
Rp483
sS'2016-06-29'
p484
g2
(g6
S'\xcaY\xdf\x0bp\x11)@'
p485
tp486
Rp487
sS'2016-06-28'
p488
g2
(g6
S'\xb5\xcb[\x14\x85\xc8(@'
p489
tp490
Rp491
sS'2016-09-24'
p492
g2
(g6
S'\xacc\x82\x07\xf3\x04*@'
p493
tp494
Rp495
sS'2016-11-03'
p496
g2
(g6
S'd~\xf0\xde\x92\xde%@'
p497
tp498
Rp499
sS'2016-09-25'
p500
g2
(g6
S'j-\xe6E\xdd1*@'
p501
tp502
Rp503
sS'2017-06-13'
p504
g2
(g6
S'\xc0N\xcdO\x11\xf6w@'
p505
tp506
Rp507
sS'2017-06-12'
p508
g2
(g6
S'\xfeg\xd5R\x92\x1dw@'
p509
tp510
Rp511
sS'2017-06-11'
p512
g2
(g6
S'\xbd\x87\xe6;]0u@'
p513
tp514
Rp515
sS'2017-06-10'
p516
g2
(g6
S'\x83\x15R\xecu\x96s@'
p517
tp518
Rp519
sS'2017-06-17'
p520
g2
(g6
S'\x16?\xcd\\\xce~v@'
p521
tp522
Rp523
sS'2017-06-16'
p524
g2
(g6
S'uO?\xbc\x10\xadu@'
p525
tp526
Rp527
sS'2017-05-12'
p528
g2
(g6
S'\x93[\xc2>\xe0\x8fU@'
p529
tp530
Rp531
sS'2017-04-28'
p532
g2
(g6
S'\xa2<\x1d\xef,&Q@'
p533
tp534
Rp535
sS'2017-03-30'
p536
g2
(g6
S'iz\xf2Sn+J@'
p537
tp538
Rp539
sS'2017-03-31'
p540
g2
(g6
S'{\xa3vZ\xab\x98H@'
p541
tp542
Rp543
sS'2017-05-16'
p544
g2
(g6
S'\x9d\x1d:)\x90\xfeU@'
p545
tp546
Rp547
sS'2017-05-17'
p548
g2
(g6
S'\\\xac\xd8O=\xaaU@'
p549
tp550
Rp551
sS'2017-05-14'
p552
g2
(g6
S'\xc8\x8ak}\xc9:V@'
p553
tp554
Rp555
sS'2017-04-29'
p556
g2
(g6
S'\xe6(\xc0\xff\x8f\xb1Q@'
p557
tp558
Rp559
sS'2017-05-18'
p560
g2
(g6
S'p\x99^b\xb2\xfdW@'
p561
tp562
Rp563
sS'2017-05-19'
p564
g2
(g6
S'\x85\x96\x1fp\xac\xb7]@'
p565
tp566
Rp567
sS'2016-12-19'
p568
g2
(g6
S'\x10\xb8M\xa8Q\xe7\x1e@'
p569
tp570
Rp571
sS'2016-11-18'
p572
g2
(g6
S'K\xe6h\xdd\xcat#@'
p573
tp574
Rp575
sS'2016-11-19'
p576
g2
(g6
S'%\xbfX\xf2\x8b\xa5#@'
p577
tp578
Rp579
sS'2016-11-12'
p580
g2
(g6
S'\xfe\xda6\xa7\xa0\x18$@'
p581
tp582
Rp583
sS'2016-11-13'
p584
g2
(g6
S'\xd2\xe8\xf0\x13\x01Z$@'
p585
tp586
Rp587
sS'2016-07-31'
p588
g2
(g6
S'\xfe\x8f\x1en\xcd((@'
p589
tp590
Rp591
sS'2016-07-30'
p592
g2
(g6
S'*\x86\x8e\xa6Kf)@'
p593
tp594
Rp595
sS'2016-11-16'
p596
g2
(g6
S'\x8f\x83\xa7\xc3\x8b\x0c$@'
p597
tp598
Rp599
sS'2016-11-17'
p600
g2
(g6
S'\x85\x06Ch0\x04$@'
p601
tp602
Rp603
sS'2016-11-14'
p604
g2
(g6
S'\x19\x1e\x97\xe1q\x19$@'
p605
tp606
Rp607
sS'2016-11-15'
p608
g2
(g6
S"'\xa3\xb7e\xad\x8e$@"
p609
tp610
Rp611
sS'2017-06-18'
p612
g2
(g6
S'\x99\xdd\xff\x90\xd9Lv@'
p613
tp614
Rp615
sS'2017-04-20'
p616
g2
(g6
S'C\x17\x85\x19\x98ZH@'
p617
tp618
Rp619
sS'2017-07-29'
p620
g2
(g6
S'\xde\xda/\x11w\xc9g@'
p621
tp622
Rp623
sS'2017-07-28'
p624
g2
(g6
S'Ed)@\xde,h@'
p625
tp626
Rp627
sS'2017-04-21'
p628
g2
(g6
S'm\xe1\xef\xe0ioH@'
p629
tp630
Rp631
sS'2017-07-25'
p632
g2
(g6
S'\xf34>\x11\xaa\x9fi@'
p633
tp634
Rp635
sS'2017-07-24'
p636
g2
(g6
S'\xe8\x99D\xd8\x83;l@'
p637
tp638
Rp639
sS'2017-07-27'
p640
g2
(g6
S'i\x9b\x01\xe7\xe3Fi@'
p641
tp642
Rp643
sS'2017-07-26'
p644
g2
(g6
S'\xfd1\xd3(\x82\xedh@'
p645
tp646
Rp647
sS'2017-07-21'
p648
g2
(g6
S'\xbfr\x83a\xfd\xd2k@'
p649
tp650
Rp651
sS'2016-09-19'
p652
g2
(g6
S'\x8e\xb9k\t\xf9 *@'
p653
tp654
Rp655
sS'2017-07-23'
p656
g2
(g6
S'hy\x1dvh{l@'
p657
tp658
Rp659
sS'2017-07-22'
p660
g2
(g6
S'c+\x12\x86\xb6\x8bl@'
p661
tp662
Rp663
sS'2016-09-18'
p664
g2
(g6
S'],\xf9\xc5\x92\x1f)@'
p665
tp666
Rp667
sS'2017-04-24'
p668
g2
(g6
S'\xb4\xb7ax\xc2!I@'
p669
tp670
Rp671
sS'2017-04-25'
p672
g2
(g6
S'\x18q\x8e\xb2\x955I@'
p673
tp674
Rp675
sS'2017-04-26'
p676
g2
(g6
S'\xb8\xa5\xcf\xc1\xa4\x9fJ@'
p677
tp678
Rp679
sS'2017-04-27'
p680
g2
(g6
S'i\x14\xd6\xd3\x1a\xe3N@'
p681
tp682
Rp683
sS'2017-01-13'
p684
g2
(g6
S'\x92\xccv\x08\xe0\xa1#@'
p685
tp686
Rp687
sS'2016-08-29'
p688
g2
(g6
S'\xd7\x15 \xf7\x9a\x0b&@'
p689
tp690
Rp691
sS'2016-08-28'
p692
g2
(g6
S'\x85\xbf\xbc\xce\xd9\x11&@'
p693
tp694
Rp695
sS'2016-08-25'
p696
g2
(g6
S'\x83N\x1b\xe8\xb4\x91&@'
p697
tp698
Rp699
sS'2016-08-24'
p700
g2
(g6
S'\x05\xd1\x9dj7D&@'
p701
tp702
Rp703
sS'2016-08-27'
p704
g2
(g6
S'\xa7\x185\xfcm\x8a&@'
p705
tp706
Rp707
sS'2016-08-26'
p708
g2
(g6
S'\x88\x87\x87\x87\x87\xc7&@'
p709
tp710
Rp711
sS'2016-08-21'
p712
g2
(g6
S'\xf0"V\x89\xbco&@'
p713
tp714
Rp715
sS'2016-08-20'
p716
g2
(g6
S'\xee\xb3\x0b\x88M\x85&@'
p717
tp718
Rp719
sS'2016-08-23'
p720
g2
(g6
S'O\xa5!\xe7>;&@'
p721
tp722
Rp723
sS'2016-08-22'
p724
g2
(g6
S'KG+\xa0\xaf\x9f&@'
p725
tp726
Rp727
sS'2017-02-01'
p728
g2
(g6
S'`\xdd\x17\xe5\xabL%@'
p729
tp730
Rp731
sS'2017-02-02'
p732
g2
(g6
S'y\xb8\xdc\xd7\xb8\xb7%@'
p733
tp734
Rp735
sS'2017-02-03'
p736
g2
(g6
S'2\xd7\x10\xe3\xff\xe8%@'
p737
tp738
Rp739
sS'2017-02-04'
p740
g2
(g6
S'\x90M_d\x8a\xa7&@'
p741
tp742
Rp743
sS'2017-02-05'
p744
g2
(g6
S'+\x94\x8ch}`&@'
p745
tp746
Rp747
sS'2017-02-06'
p748
g2
(g6
S'D\x86\xca\x0eS\x97&@'
p749
tp750
Rp751
sS'2017-02-07'
p752
g2
(g6
S']\xf6\x8f)\xc3\xec&@'
p753
tp754
Rp755
sS'2017-02-08'
p756
g2
(g6
S'\xc8\x90\xd9\x92n\xe8&@'
p757
tp758
Rp759
sS'2017-02-09'
p760
g2
(g6
S'\xb5y \xf3\x83\xf7%@'
p761
tp762
Rp763
sS'2016-10-08'
p764
g2
(g6
S'w:y\xa7\x93\xb7(@'
p765
tp766
Rp767
sS'2016-10-09'
p768
g2
(g6
S'\x15c\xe2\xa6\xa9\x97(@'
p769
tp770
Rp771
sS'2016-10-06'
p772
g2
(g6
S'T\x9eK k\xd8)@'
p773
tp774
Rp775
sS'2016-10-07'
p776
g2
(g6
S'*\x9d\xa1+\xe2<)@'
p777
tp778
Rp779
sS'2016-10-04'
p780
g2
(g6
S'\xe7\x968\xf5{\xee*@'
p781
tp782
Rp783
sS'2016-10-05'
p784
g2
(g6
S'n\xc0\x0cv1\x80*@'
p785
tp786
Rp787
sS'2016-10-02'
p788
g2
(g6
S'\x8b\x83\x05%\x1d_*@'
p789
tp790
Rp791
sS'2016-10-03'
p792
g2
(g6
S'\x988\xf5{n\xc9*@'
p793
tp794
Rp795
sS'2016-10-01'
p796
g2
(g6
S'\xe1\x80\xc7\x1f\x0ex*@'
p797
tp798
Rp799
sS'2016-09-13'
p800
g2
(g6
S'\x9aV\x88\n\x94\x12(@'
p801
tp802
Rp803
sS'2016-09-12'
p804
g2
(g6
S"\x99\x9e\x85\xe9Y\xd8'@"
p805
tp806
Rp807
sS'2016-09-11'
p808
g2
(g6
S"o\xf0\x85\xc9T\xc1'@"
p809
tp810
Rp811
sS'2016-09-10'
p812
g2
(g6
S"\t\r\x86\xd0`\xa8'@"
p813
tp814
Rp815
sS'2016-09-17'
p816
g2
(g6
S'^M<+\x1a))@'
p817
tp818
Rp819
sS'2016-09-16'
p820
g2
(g6
S'\xbc\x1c\xcf\xcb\xf1\xfc(@'
p821
tp822
Rp823
sS'2016-09-15'
p824
g2
(g6
S"\xf5\xc1\x8e[(\xf5'@"
p825
tp826
Rp827
sS'2016-09-14'
p828
g2
(g6
S'.}\xfb+\x13\x05(@'
p829
tp830
Rp831
sS'2016-12-13'
p832
g2
(g6
S'\xafG\xe1z\x14\xee @'
p833
tp834
Rp835
sS'2016-12-12'
p836
g2
(g6
S'm\xa0\xd3\x06:\xfd @'
p837
tp838
Rp839
sS'2016-12-11'
p840
g2
(g6
S'\xd8\xa3p=\n\xd7 @'
p841
tp842
Rp843
sS'2016-12-10'
p844
g2
(g6
S'\xfe\xa6<\x97@\x96 @'
p845
tp846
Rp847
sS'2016-12-17'
p848
g2
(g6
S'\xe4}\x17\xb1J\xe4\x1e@'
p849
tp850
Rp851
sS'2016-12-16'
p852
g2
(g6
S'J\xc7\xa7\xaf-\x0e\x1f@'
p853
tp854
Rp855
sS'2016-12-15'
p856
g2
(g6
S'\x07#\xedX\x81\xb0\x1f@'
p857
tp858
Rp859
sS'2016-12-14'
p860
g2
(g6
S'+\xf8\xc4\x91^\xab @'
p861
tp862
Rp863
sS'2017-01-29'
p864
g2
(g6
S'\x9f\xbe\xb68X\x10%@'
p865
tp866
Rp867
sS'2017-01-28'
p868
g2
(g6
S'\x1e\xfc^\xa7\x8e<%@'
p869
tp870
Rp871
sS'2017-01-27'
p872
g2
(g6
S'7Z\xf8\x9c\xe3<%@'
p873
tp874
Rp875
sS'2017-01-26'
p876
g2
(g6
S'\xc5\x92_,\xf9=%@'
p877
tp878
Rp879
sS'2017-01-25'
p880
g2
(g6
S'\xecqr\xb1x%%@'
p881
tp882
Rp883
sS'2017-01-24'
p884
g2
(g6
S'\xdf\xc0\x855\xedA%@'
p885
tp886
Rp887
sS'2017-01-23'
p888
g2
(g6
S'\xaf\x91\x06\x16\x86r%@'
p889
tp890
Rp891
sS'2017-01-22'
p892
g2
(g6
S'\x1c\xb0D\xc5\xa0\xbb%@'
p893
tp894
Rp895
sS'2017-01-21'
p896
g2
(g6
S'\xca\xadc\xf0u\xb7%@'
p897
tp898
Rp899
sS'2017-01-20'
p900
g2
(g6
S')PJ\x86\xdfL%@'
p901
tp902
Rp903
sS'2016-07-02'
p904
g2
(g6
S'\xd8\xd8\xd8\xd8\xd8\x18(@'
p905
tp906
Rp907
sS'2016-07-03'
p908
g2
(g6
S"\xec\xe41R\xa4\xcd'@"
p909
tp910
Rp911
sS'2016-07-01'
p912
g2
(g6
S'g+\xca\xb8=\x03(@'
p913
tp914
Rp915
sS'2016-07-06'
p916
g2
(g6
S'x\x8e@\xd1V\xb3%@'
p917
tp918
Rp919
sS'2016-07-07'
p920
g2
(g6
S'>\xb9\x96\x82\xe18$@'
p921
tp922
Rp923
sS'2016-07-04'
p924
g2
(g6
S"\xb2\xab8\xec\xec\x07'@"
p925
tp926
Rp927
sS'2016-07-05'
p928
g2
(g6
S'\x8d\x1a\xb2 36%@'
p929
tp930
Rp931
sS'2017-08-31'
p932
g2
(g6
S'\xf92Z\x05(4x@'
p933
tp934
Rp935
sS'2017-08-30'
p936
g2
(g6
S'd\xb2\xb9\xaf\x01\xd4w@'
p937
tp938
Rp939
sS'2016-08-30'
p940
g2
(g6
S'\x15\xaeG\xe1zt&@'
p941
tp942
Rp943
sS'2016-06-18'
p944
g2
(g6
S"`\x9f\xc2D%\xe7'@"
p945
tp946
Rp947
sS'2016-06-19'
p948
g2
(g6
S't\xf3&X\x187)@'
p949
tp950
Rp951
sS'2016-06-16'
p952
g2
(g6
S'O\xcb_\xe4\xa8\xc13@'
p953
tp954
Rp955
sS'2016-06-17'
p956
g2
(g6
S'X?2\x1f\x8f}0@'
p957
tp958
Rp959
sS'2016-06-14'
p960
g2
(g6
S'+\xf4TZ\xbfg2@'
p961
tp962
Rp963
sS'2016-06-15'
p964
g2
(g6
S'>;,\xcf5b2@'
p965
tp966
Rp967
sS'2016-06-12'
p968
g2
(g6
S'\xd0&\x95\xbe\x01\x84-@'
p969
tp970
Rp971
sS'2016-06-13'
p972
g2
(g6
S'\x1e\xc1o\x1c3\xb20@'
p973
tp974
Rp975
sS'2016-06-10'
p976
g2
(g6
S'5\xa9\xf9\x00v\x06,@'
p977
tp978
Rp979
sS'2016-06-11'
p980
g2
(g6
S'\xcb\x8e\xc5\x00\xc6a,@'
p981
tp982
Rp983
sS'2017-09-27'
p984
g2
(g6
S'u1\xb1\xe8\xa8\xdfr@'
p985
tp986
Rp987
sS'2017-09-26'
p988
g2
(g6
S'\x90\x08"\x87\x7f"r@'
p989
tp990
Rp991
sS'2017-09-25'
p992
g2
(g6
S'\x11\x11\x11\x91\xbdSr@'
p993
tp994
Rp995
sS'2017-09-24'
p996
g2
(g6
S'K\x81\xfa\x98\xae\xc5q@'
p997
tp998
Rp999
sS'2017-09-23'
p1000
g2
(g6
S'\xa3\xc2\xfd\x93\xaa\x82q@'
p1001
tp1002
Rp1003
sS'2017-09-22'
p1004
g2
(g6
S'\xdc\x01\xca\x1d Zp@'
p1005
tp1006
Rp1007
sS'2017-09-21'
p1008
g2
(g6
S'\x82<\xf2\xec\xd7\xb8p@'
p1009
tp1010
Rp1011
sS'2017-09-20'
p1012
g2
(g6
S'\xd5t\xe1i\xaa\xd8q@'
p1013
tp1014
Rp1015
sS'2017-09-29'
p1016
g2
(g6
S'X\xff\x93\x03\xb8\x1fr@'
p1017
tp1018
Rp1019
sS'2017-09-28'
p1020
g2
(g6
S's\x86\xcb\x1d\x89\xa7r@'
p1021
tp1022
Rp1023
sS'2016-05-09'
p1024
g2
(g6
S'<\xe5\xc48\x84\xa0#@'
p1025
tp1026
Rp1027
sS'2017-06-30'
p1028
g2
(g6
S'\xcfa\x99\x06\xe6\xcbq@'
p1029
tp1030
Rp1031
sS'2016-07-08'
p1032
g2
(g6
S'P+\xf7\x85V\x1b&@'
p1033
tp1034
Rp1035
sS'2017-05-01'
p1036
g2
(g6
S';\xd7U\x14\xad\xbaS@'
p1037
tp1038
Rp1039
sS'2016-07-09'
p1040
g2
(g6
S'\xd7\xa1V$\xb7\x83&@'
p1041
tp1042
Rp1043
sS'2017-05-03'
p1044
g2
(g6
S'\xc0\xdfW\xdcN\xb9S@'
p1045
tp1046
Rp1047
sS'2017-05-02'
p1048
g2
(g6
S'`K\x17\xdf\x1bJS@'
p1049
tp1050
Rp1051
sS'2016-12-18'
p1052
g2
(g6
S'a\xc5\r\xf5"\xa9\x1f@'
p1053
tp1054
Rp1055
sS'2017-05-05'
p1056
g2
(g6
S'H:\x8f\xf9\xc9gW@'
p1057
tp1058
Rp1059
sS'2017-05-04'
p1060
g2
(g6
S'T\x05\xa3\x92:IV@'
p1061
tp1062
Rp1063
sS'2017-05-07'
p1064
g2
(g6
S'\xf4\xa8_\xba\xdd\xadW@'
p1065
tp1066
Rp1067
sS'2017-05-06'
p1068
g2
(g6
S'\xd1\xd6]7\x9aoW@'
p1069
tp1070
Rp1071
sS'2017-05-09'
p1072
g2
(g6
S'\xbb\x01\x0cm\x7f\x1aU@'
p1073
tp1074
Rp1075
sS'2017-05-08'
p1076
g2
(g6
S'\x92\x0b\x1ej1|V@'
p1077
tp1078
Rp1079
sS'2017-04-22'
p1080
g2
(g6
S'\x80UD=\x1cgH@'
p1081
tp1082
Rp1083
sS'2017-06-08'
p1084
g2
(g6
S'\xf3#1\xde(\x19p@'
p1085
tp1086
Rp1087
sS'2017-06-19'
p1088
g2
(g6
S'\xe6\x0c\xf0i[Ov@'
p1089
tp1090
Rp1091
sS'2017-04-23'
p1092
g2
(g6
S'\x96r\x1bO\xddrH@'
p1093
tp1094
Rp1095
sS'2017-09-16'
p1096
g2
(g6
S'O\xff\xcb\xdb\x83\xdeo@'
p1097
tp1098
Rp1099
sS'2017-10-09'
p1100
g2
(g6
S'\xe5\x93\x99\x81\x1b\x85r@'
p1101
tp1102
Rp1103
sS'2017-10-08'
p1104
g2
(g6
S'\xe9\xf7KCCes@'
p1105
tp1106
Rp1107
sS'2016-09-22'
p1108
g2
(g6
S'\xaam\xa7C\x07A*@'
p1109
tp1110
Rp1111
sS'2016-09-23'
p1112
g2
(g6
S'\xf4\xc0\xec\x93\x03\xd9*@'
p1113
tp1114
Rp1115
sS'2016-09-20'
p1116
g2
(g6
S'\x992\xcce\xff\xe8+@'
p1117
tp1118
Rp1119
sS'2016-09-21'
p1120
g2
(g6
S'\xdf\xfb\xbbCC$+@'
p1121
tp1122
Rp1123
sS'2016-09-26'
p1124
g2
(g6
S'r"\x19\'\x92\xf1)@'
p1125
tp1126
Rp1127
sS'2016-09-27'
p1128
g2
(g6
S'\xfbMy.\x81\x8c*@'
p1129
tp1130
Rp1131
sS'2017-10-05'
p1132
g2
(g6
S"3[0'\xe2Kr@"
p1133
tp1134
Rp1135
sS'2017-10-04'
p1136
g2
(g6
S'G\xc2\xc9\xa3]Pr@'
p1137
tp1138
Rp1139
sS'2016-12-22'
p1140
g2
(g6
S'\xbb\xaa\x90\x1eE_\x1e@'
p1141
tp1142
Rp1143
sS'2016-12-23'
p1144
g2
(g6
S'\x98\xb0\x19\xe1\xebo\x1d@'
p1145
tp1146
Rp1147
sS'2016-12-20'
p1148
g2
(g6
S'z.\x81\xaca\xb4\x1e@'
p1149
tp1150
Rp1151
sS'2016-12-21'
p1152
g2
(g6
S'a\x08\r\x86\xd0`\x1f@'
p1153
tp1154
Rp1155
sS'2016-12-26'
p1156
g2
(g6
S';m\xa0\xd3\x06:\x1d@'
p1157
tp1158
Rp1159
sS'2016-12-27'
p1160
g2
(g6
S'\x06"_ \xf2\x05\x1d@'
p1161
tp1162
Rp1163
sS'2016-12-24'
p1164
g2
(g6
S'333333\x1d@'
p1165
tp1166
Rp1167
sS'2016-12-25'
p1168
g2
(g6
S'\x80]R\xf90\xee\x1c@'
p1169
tp1170
Rp1171
sS'2017-09-12'
p1172
g2
(g6
S'\x86\x0e\xbc;9\x8br@'
p1173
tp1174
Rp1175
sS'2016-12-28'
p1176
g2
(g6
S'\xb0\xbe\x17\xe0"9\x1f@'
p1177
tp1178
Rp1179
sS'2016-12-29'
p1180
g2
(g6
S'\xe4^s!i\xca @'
p1181
tp1182
Rp1183
sS'2016-11-04'
p1184
g2
(g6
S"\t\xcc\xe2N\x10'&@"
p1185
tp1186
Rp1187
sS'2017-01-16'
p1188
g2
(g6
S'+;L]no#@'
p1189
tp1190
Rp1191
sS'2017-01-17'
p1192
g2
(g6
S'8\xc1\xd0T\xb7|$@'
p1193
tp1194
Rp1195
sS'2017-01-14'
p1196
g2
(g6
S'\xf0E\xad\xf8m\xa4#@'
p1197
tp1198
Rp1199
sS'2017-01-15'
p1200
g2
(g6
S'\x9d!\x9f\x96\xc2\xb4#@'
p1201
tp1202
Rp1203
sS'2017-01-12'
p1204
g2
(g6
S'\x91x\xd0\x8d\xea\xb6#@'
p1205
tp1206
Rp1207
sS'2017-09-10'
p1208
g2
(g6
S'F\x84\xcb\x01pgr@'
p1209
tp1210
Rp1211
sS'2017-01-10'
p1212
g2
(g6
S'mM\xca\xd6\xa4,%@'
p1213
tp1214
Rp1215
sS'2017-01-11'
p1216
g2
(g6
S'\xabN\xa9\xfct\xfb#@'
p1217
tp1218
Rp1219
sS'2016-11-06'
p1220
g2
(g6
S'\x8f\xc2\xf5(\\\x0f&@'
p1221
tp1222
Rp1223
sS'2017-01-18'
p1224
g2
(g6
S'}1\x9fz1_$@'
p1225
tp1226
Rp1227
sS'2017-01-19'
p1228
g2
(g6
S'D\x032\xdbW\xf0$@'
p1229
tp1230
Rp1231
sS'2017-08-02'
p1232
g2
(g6
S'\xd9\x92\x0c\x95\xbf|k@'
p1233
tp1234
Rp1235
sS'2017-08-03'
p1236
g2
(g6
S'\xbe]\x96r\xc1\x06l@'
p1237
tp1238
Rp1239
sS'2017-08-01'
p1240
g2
(g6
S'\x04&\xa4\r\xaa|k@'
p1241
tp1242
Rp1243
sS'2017-08-06'
p1244
g2
(g6
S'\x0c\xe7S\xa2\x98Yp@'
p1245
tp1246
Rp1247
sS'2017-08-07'
p1248
g2
(g6
S'\xd60\x89\x93\xbf\xbap@'
p1249
tp1250
Rp1251
sS'2017-08-04'
p1252
g2
(g6
S"E'\xc0\xcbN\xbbk@"
p1253
tp1254
Rp1255
sS'2017-08-05'
p1256
g2
(g6
S'>\x19\x07C\x04\xdan@'
p1257
tp1258
Rp1259
sS'2017-08-08'
p1260
g2
(g6
S'\xd1\x8f\x8aI\xefCr@'
p1261
tp1262
Rp1263
sS'2017-08-09'
p1264
g2
(g6
S'\xfb\xc4\xe9\x0f*kr@'
p1265
tp1266
Rp1267
sS'2017-03-21'
p1268
g2
(g6
S'@w\xf2\xc1McE@'
p1269
tp1270
Rp1271
sS'2017-03-20'
p1272
g2
(g6
S'Hg~t\xe6\x97E@'
p1273
tp1274
Rp1275
sS'2017-03-23'
p1276
g2
(g6
S')r>\x0f\xfdIE@'
p1277
tp1278
Rp1279
sS'2017-03-22'
p1280
g2
(g6
S'Z\x12\xff\x0cJ3D@'
p1281
tp1282
Rp1283
sS'2017-03-25'
p1284
g2
(g6
S'\n\x9c\xa3\xc9l\xe8H@'
p1285
tp1286
Rp1287
sS'2017-03-24'
p1288
g2
(g6
S'Ay%F\xf4|H@'
p1289
tp1290
Rp1291
sS'2017-03-27'
p1292
g2
(g6
S')\x11RV\xc3\xcfH@'
p1293
tp1294
Rp1295
sS'2017-03-26'
p1296
g2
(g6
S'h\x06\xc8\x03\xf5\x19I@'
p1297
tp1298
Rp1299
sS'2017-03-29'
p1300
g2
(g6
S'\x86\xbd\r\x0b\x10iJ@'
p1301
tp1302
Rp1303
sS'2017-03-28'
p1304
g2
(g6
S'\r\xd0I\xf9\xbbYI@'
p1305
tp1306
Rp1307
sS'2017-05-29'
p1308
g2
(g6
S'C\xd8\xec\xbf\x8c*g@'
p1309
tp1310
Rp1311
sS'2016-11-09'
p1312
g2
(g6
S"`F'\xb7];%@"
p1313
tp1314
Rp1315
sS'2016-11-08'
p1316
g2
(g6
S'\x04|\xf3j\xe2\xc1%@'
p1317
tp1318
Rp1319
sS'2017-09-18'
p1320
g2
(g6
S'\xad5\x89\x02tHr@'
p1321
tp1322
Rp1323
sS'2017-09-19'
p1324
g2
(g6
S'<2\x94\xa9\x02\xcfq@'
p1325
tp1326
Rp1327
sS'2016-11-01'
p1328
g2
(g6
S'm\xdce\xb9x\x80%@'
p1329
tp1330
Rp1331
sS'2017-09-17'
p1332
g2
(g6
S'WO\xcbJ/}p@'
p1333
tp1334
Rp1335
sS'2017-09-14'
p1336
g2
(g6
S'b\xcb\xaeY\xd95n@'
p1337
tp1338
Rp1339
sS'2016-11-02'
p1340
g2
(g6
S'\xa6:[\xaa\xb3\x05&@'
p1341
tp1342
Rp1343
sS'2016-11-05'
p1344
g2
(g6
S'\x1e>\xc3\xae\x009&@'
p1345
tp1346
Rp1347
sS'2017-09-13'
p1348
g2
(g6
S'\xb9\xd9\xa7X\x10\x04q@'
p1349
tp1350
Rp1351
sS'2016-11-07'
p1352
g2
(g6
S'\x84\xebQ\xb8\x1e\x05&@'
p1353
tp1354
Rp1355
sS'2017-09-11'
p1356
g2
(g6
S's.z\xebt\x86r@'
p1357
tp1358
Rp1359
sS'2016-06-27'
p1360
g2
(g6
S'\x18\xa9\x01\xc2_^,@'
p1361
tp1362
Rp1363
sS'2016-06-26'
p1364
g2
(g6
S"\xf2'\xe32\xbf\x16,@"
p1365
tp1366
Rp1367
sS'2017-05-28'
p1368
g2
(g6
S'\x88\xc6\xce\x8b\x16\x8be@'
p1369
tp1370
Rp1371
sS'2016-06-25'
p1372
g2
(g6
S'\xd6 s?\xb3\xd5,@'
p1373
tp1374
Rp1375
sS'2017-07-10'
p1376
g2
(g6
S'\x04\x85\xe7G\xcf\x8cj@'
p1377
tp1378
Rp1379
sS'2017-07-11'
p1380
g2
(g6
S'\xae{\x985\xf4\x00h@'
p1381
tp1382
Rp1383
sS'2017-07-12'
p1384
g2
(g6
S'\xc4\xcc\x17,\x9cgj@'
p1385
tp1386
Rp1387
sS'2016-06-24'
p1388
g2
(g6
S'\xf2UQo,_,@'
p1389
tp1390
Rp1391
sS'2017-07-14'
p1392
g2
(g6
S'\x88~^\x9c\xb6\xf8g@'
p1393
tp1394
Rp1395
sS'2017-07-15'
p1396
g2
(g6
S'\xd4\xa8\xbc\xd0IZf@'
p1397
tp1398
Rp1399
sS'2017-07-16'
p1400
g2
(g6
S'\xfbP.\\u\xfcb@'
p1401
tp1402
Rp1403
sS'2017-07-17'
p1404
g2
(g6
S'\xdb\xf5\xd7<\xd4\x18f@'
p1405
tp1406
Rp1407
sS'2017-07-18'
p1408
g2
(g6
S' gLE\x104k@'
p1409
tp1410
Rp1411
sS'2017-10-10'
p1412
g2
(g6
S'\x82%\x08\xe0i\xc4r@'
p1413
tp1414
Rp1415
sS'2016-06-22'
p1416
g2
(g6
S'\xfc\x9d\xb9e&\xbd+@'
p1417
tp1418
Rp1419
sS'2016-06-21'
p1420
g2
(g6
S'\x91;\xd4R*\x07*@'
p1421
tp1422
Rp1423
sS'2016-06-20'
p1424
g2
(g6
S"=\xf4\x03-\x14\r'@"
p1425
tp1426
Rp1427
sS'2017-07-13'
p1428
g2
(g6
S'\x17Q\x01\x7f/\x81i@'
p1429
tp1430
Rp1431
sS'2017-06-05'
p1432
g2
(g6
S'2f\xce\x8c\x99\xfbn@'
p1433
tp1434
Rp1435
sS'2016-08-10'
p1436
g2
(g6
S'V\x9f\xab\xad\xd8\x9f(@'
p1437
tp1438
Rp1439
sS'2016-08-11'
p1440
g2
(g6
S"\xb2\x86\xd1~S\xde'@"
p1441
tp1442
Rp1443
sS'2016-08-12'
p1444
g2
(g6
S"\x8f\xc2\xf5(\\\xcf'@"
p1445
tp1446
Rp1447
sS'2016-08-13'
p1448
g2
(g6
S"\xf1\xb0\x83\xcd\xdb\x87'@"
p1449
tp1450
Rp1451
sS'2016-08-14'
p1452
g2
(g6
S'\x1b\xec\xcb\x95\x00\xfa&@'
p1453
tp1454
Rp1455
sS'2016-08-15'
p1456
g2
(g6
S'\xf6(\\\x8f\xc2]&@'
p1457
tp1458
Rp1459
sS'2016-08-16'
p1460
g2
(g6
S'9XP\xd2\xf1i&@'
p1461
tp1462
Rp1463
sS'2016-08-17'
p1464
g2
(g6
S'\xba\xec\x1fS\x86\x19&@'
p1465
tp1466
Rp1467
sS'2016-08-18'
p1468
g2
(g6
S'\x12\x1c\xd22>\xf4%@'
p1469
tp1470
Rp1471
sS'2016-08-19'
p1472
g2
(g6
S'Si\xc8\xb9\xcf\xce%@'
p1473
tp1474
Rp1475
sS'2017-06-01'
p1476
g2
(g6
S'\x9eX\xc4[$\xa6k@'
p1477
tp1478
Rp1479
sS'2017-02-17'
p1480
g2
(g6
S'\xa1^m\xb8\xf0\x9a)@'
p1481
tp1482
Rp1483
sS'2017-02-16'
p1484
g2
(g6
S'\xae\xde\xea\xad\xde\xba)@'
p1485
tp1486
Rp1487
sS'2017-02-15'
p1488
g2
(g6
S'\x83\xa4\xfcC\xdf\xb6)@'
p1489
tp1490
Rp1491
sS'2017-02-14'
p1492
g2
(g6
S'9\xe7\xf5\x9a\xd4\x11)@'
p1493
tp1494
Rp1495
sS'2017-02-13'
p1496
g2
(g6
S"\xed\x07\xd8~\x80\x05'@"
p1497
tp1498
Rp1499
sS'2017-02-12'
p1500
g2
(g6
S'\xe8\x10c \xa8\xca&@'
p1501
tp1502
Rp1503
sS'2017-02-11'
p1504
g2
(g6
S'B\x16d\xc6\xd6\xae&@'
p1505
tp1506
Rp1507
sS'2017-02-10'
p1508
g2
(g6
S'\x9b\xb7nd\x82L&@'
p1509
tp1510
Rp1511
sS'2017-06-03'
p1512
g2
(g6
S'U\x8d:@\xa5\x18l@'
p1513
tp1514
Rp1515
sS'2017-02-19'
p1516
g2
(g6
S'\xbe)\xcc\xd1V\xf4)@'
p1517
tp1518
Rp1519
sS'2017-02-18'
p1520
g2
(g6
S'\x12K\x08E\xdd\xc3)@'
p1521
tp1522
Rp1523
sS'2016-10-19'
p1524
g2
(g6
S"\xc5\x03 \x10\t\xdd'@"
p1525
tp1526
Rp1527
sS'2016-10-18'
p1528
g2
(g6
S'a9\xbe^KI)@'
p1529
tp1530
Rp1531
sS'2016-10-15'
p1532
g2
(g6
S"\xf6(\\\x8f\xc2\xd5'@"
p1533
tp1534
Rp1535
sS'2016-10-14'
p1536
g2
(g6
S"\xb6\xf3\xfd\xd4x\xe9'@"
p1537
tp1538
Rp1539
sS'2016-10-17'
p1540
g2
(g6
S"\x1d\xc6\xfd\xba\xa4\xf2'@"
p1541
tp1542
Rp1543
sS'2016-10-16'
p1544
g2
(g6
S"{\x14\xaeG\xe1\xfa'@"
p1545
tp1546
Rp1547
sS'2016-10-11'
p1548
g2
(g6
S"C&\xfb\xea\xa4\xca'@"
p1549
tp1550
Rp1551
sS'2016-10-10'
p1552
g2
(g6
S"[\xd6\xea\x98\xe0\xc1'@"
p1553
tp1554
Rp1555
sS'2016-10-13'
p1556
g2
(g6
S'\xff+\x04\x87\xb4\x0c(@'
p1557
tp1558
Rp1559
sS'2016-10-12'
p1560
g2
(g6
S"\xadP\xbd\n\xd5\xab'@"
p1561
tp1562
Rp1563
sS'2017-04-15'
p1564
g2
(g6
S'W5\xca\xef\xa9\xecG@'
p1565
tp1566
Rp1567
sS'2016-12-05'
p1568
g2
(g6
S'P\xeb\xca\r\xce\xf6\x1b@'
p1569
tp1570
Rp1571
sS'2017-11-19'
p1572
g2
(g6
S'R|\xce#~Uv@'
p1573
tp1574
Rp1575
sS'2017-04-17'
p1576
g2
(g6
S':\xebb\x08\x91 H@'
p1577
tp1578
Rp1579
sS'2017-04-16'
p1580
g2
(g6
S'\xfe\x1cn\xf4*)H@'
p1581
tp1582
Rp1583
sS'2017-09-15'
p1584
g2
(g6
S')Xc\xc8\x1aVm@'
p1585
tp1586
Rp1587
sS'2017-04-10'
p1588
g2
(g6
S'(\xb9:/.\xd7E@'
p1589
tp1590
Rp1591
sS'2017-04-13'
p1592
g2
(g6
S'\x92\x17\n\xf6\xd1\xa6H@'
p1593
tp1594
Rp1595
sS'2017-11-18'
p1596
g2
(g6
S'\xa5Z(fj.u@'
p1597
tp1598
Rp1599
sS'2017-04-12'
p1600
g2
(g6
S'\t\x8f-\x14\x03\xacF@'
p1601
tp1602
Rp1603
sS'2016-07-11'
p1604
g2
(g6
S'\x8f\x1f\xd7\xf8q\x8d%@'
p1605
tp1606
Rp1607
sS'2016-07-10'
p1608
g2
(g6
S'\xcav\xbe\x9f\x1a/&@'
p1609
tp1610
Rp1611
sS'2016-07-13'
p1612
g2
(g6
S'\xc1i"\x87\x8f\xa5%@'
p1613
tp1614
Rp1615
sS'2016-07-12'
p1616
g2
(g6
S'x\xfay\x16\x05\x87%@'
p1617
tp1618
Rp1619
sS'2016-07-15'
p1620
g2
(g6
S'\x8e\xe2\xc6\x91l}(@'
p1621
tp1622
Rp1623
sS'2016-07-14'
p1624
g2
(g6
S"\x8b'\x94\xc5\xbe\xb5&@"
p1625
tp1626
Rp1627
sS'2016-07-17'
p1628
g2
(g6
S"U\x0c_\x8a?\x12'@"
p1629
tp1630
Rp1631
sS'2016-07-16'
p1632
g2
(g6
S'\x05\xa3\x92:\x01\xcd&@'
p1633
tp1634
Rp1635
sS'2016-07-19'
p1636
g2
(g6
S"]\x8f\xc2\xf5(\xb0'@"
p1637
tp1638
Rp1639
sS'2016-07-18'
p1640
g2
(g6
S'g\xfdR\xc3F\xb3&@'
p1641
tp1642
Rp1643
sS'2016-05-15'
p1644
g2
(g6
S'\x9c\xe3\xda\xf20\xc6$@'
p1645
tp1646
Rp1647
sS'2016-05-14'
p1648
g2
(g6
S'\xf4?\x97\xaf\x02\xb0$@'
p1649
tp1650
Rp1651
sS'2016-05-13'
p1652
g2
(g6
S'\xcb=\x8d\xb0\xdc\x93%@'
p1653
tp1654
Rp1655
sS'2016-05-12'
p1656
g2
(g6
S',\r9\xf7\xd9%%@'
p1657
tp1658
Rp1659
sS'2016-05-11'
p1660
g2
(g6
S'\x13v\xf3[\x08\x18$@'
p1661
tp1662
Rp1663
sS'2016-05-10'
p1664
g2
(g6
S"\x80\x02\xf6'`\x7f#@"
p1665
tp1666
Rp1667
sS'2017-10-30'
p1668
g2
(g6
S'Da\twG)s@'
p1669
tp1670
Rp1671
sS'2017-10-31'
p1672
g2
(g6
S'@4\xcc\x01\xf5"s@'
p1673
tp1674
Rp1675
sS'2016-06-09'
p1676
g2
(g6
S"\xd2'}\xd2'\xed,@"
p1677
tp1678
Rp1679
sS'2016-06-08'
p1680
g2
(g6
S'\xeb\xce\xde\xe5! -@'
p1681
tp1682
Rp1683
sS'2016-06-05'
p1684
g2
(g6
S'u\xeb\x9d\xf8\xd6o+@'
p1685
tp1686
Rp1687
sS'2016-06-04'
p1688
g2
(g6
S'\x1fU\xa3a[\x7f+@'
p1689
tp1690
Rp1691
sS'2016-06-07'
p1692
g2
(g6
S'\x16!E\xfaF\x00-@'
p1693
tp1694
Rp1695
sS'2016-06-06'
p1696
g2
(g6
S'B\xb54S\xb1\xf5+@'
p1697
tp1698
Rp1699
sS'2016-06-01'
p1700
g2
(g6
S'H\x8b}\xb4\xd8\xe7+@'
p1701
tp1702
Rp1703
sS'2017-06-27'
p1704
g2
(g6
S'XRb\x90\x0e\x11o@'
p1705
tp1706
Rp1707
sS'2016-06-03'
p1708
g2
(g6
S'T;\xdc\xc5\xc0\xb6+@'
p1709
tp1710
Rp1711
sS'2016-06-02'
p1712
g2
(g6
S'\x9d\xfe\xfc\xb6\xc8\xbf+@'
p1713
tp1714
Rp1715
sS'2017-10-21'
p1716
g2
(g6
S'&D\x1b\x8c\xaa\x99r@'
p1717
tp1718
Rp1719
sS'2017-05-27'
p1720
g2
(g6
S'f:\x04@\x8d\x0cc@'
p1721
tp1722
Rp1723
sS'2017-05-26'
p1724
g2
(g6
S'\x08\xc1,\x01\x91\xa8e@'
p1725
tp1726
Rp1727
sS'2017-11-01'
p1728
g2
(g6
S'\x9eq\xe9T^Lr@'
p1729
tp1730
Rp1731
sS'2017-11-02'
p1732
g2
(g6
S'\x82\xbd\xdf\xd5\xd9\xd0q@'
p1733
tp1734
Rp1735
sS'2017-11-03'
p1736
g2
(g6
S'\xf8\xb4[\xac\x82\xa4r@'
p1737
tp1738
Rp1739
sS'2017-11-04'
p1740
g2
(g6
S'\xc4\x13\xa7\x8b\xe6\xbdr@'
p1741
tp1742
Rp1743
sS'2017-11-05'
p1744
g2
(g6
S'U\xfer~\xb7\x80r@'
p1745
tp1746
Rp1747
sS'2017-11-06'
p1748
g2
(g6
S'uA\x98&\xe8\xb1r@'
p1749
tp1750
Rp1751
sS'2017-11-07'
p1752
g2
(g6
S'\xb8\xc8a\xb7\xe7Nr@'
p1753
tp1754
Rp1755
sS'2017-11-08'
p1756
g2
(g6
S'\xbb\xdf$\xfaoEs@'
p1757
tp1758
Rp1759
sS'2017-11-09'
p1760
g2
(g6
S'\x9a\xa1\xa9\xe2\x13\x19t@'
p1761
tp1762
Rp1763
sS'2017-05-13'
p1764
g2
(g6
S'u\x1a\x91\x9e\xae\xb6U@'
p1765
tp1766
Rp1767
sS'2017-05-10'
p1768
g2
(g6
S'j\x07\xd3\x8f\x84LV@'
p1769
tp1770
Rp1771
sS'2017-05-11'
p1772
g2
(g6
S'{\xe5\xf7\x99\x92\tV@'
p1773
tp1774
Rp1775
sS'2017-02-28'
p1776
g2
(g6
S'J\x00\xbb\xf7\xff\x1c0@'
p1777
tp1778
Rp1779
sS'2017-02-26'
p1780
g2
(g6
S'\xb3%\x17\x93Z\xa8,@'
p1781
tp1782
Rp1783
sS'2017-02-27'
p1784
g2
(g6
S'\x9dR\xb3\xbet\xd5.@'
p1785
tp1786
Rp1787
sS'2017-02-24'
p1788
g2
(g6
S'4\xf7\xa0\x80\xf4?*@'
p1789
tp1790
Rp1791
sS'2017-02-25'
p1792
g2
(g6
S'g\xf4\xc19\xfd\x0c+@'
p1793
tp1794
Rp1795
sS'2017-02-22'
p1796
g2
(g6
S'\xc9\xb9\xcf. ^)@'
p1797
tp1798
Rp1799
sS'2017-02-23'
p1800
g2
(g6
S"\x0b\x1e\xcc\x13\xf5'*@"
p1801
tp1802
Rp1803
sS'2017-02-20'
p1804
g2
(g6
S'\xce\x9ag4\x01N)@'
p1805
tp1806
Rp1807
sS'2017-02-21'
p1808
g2
(g6
S'\x93>\xe9\x93>i)@'
p1809
tp1810
Rp1811
sS'2017-06-02'
p1812
g2
(g6
S':\xe5\x8az\x16\xbek@'
p1813
tp1814
Rp1815
sS'2017-05-15'
p1816
g2
(g6
S'M\xf6\xf0\xdcQ\xc8V@'
p1817
tp1818
Rp1819
sS'2017-03-09'
p1820
g2
(g6
S'\x86Aq\x95\x87\xcb1@'
p1821
tp1822
Rp1823
sS'2017-03-08'
p1824
g2
(g6
S"\x80\x960R\xb6'1@"
p1825
tp1826
Rp1827
sS'2017-08-20'
p1828
g2
(g6
S'\xf9/|\x15\xe7Yr@'
p1829
tp1830
Rp1831
sS'2017-06-14'
p1832
g2
(g6
S'\x94\x1d\xe7L$\x08v@'
p1833
tp1834
Rp1835
sS'2017-08-21'
p1836
g2
(g6
S"\x9a\x0cw\xb9\x92't@"
p1837
tp1838
Rp1839
sS'2017-05-23'
p1840
g2
(g6
S'\xc4\xf2?\xa7\x1f\xe5d@'
p1841
tp1842
Rp1843
sS'2017-05-22'
p1844
g2
(g6
S'\xf5\x84z\x8c4od@'
p1845
tp1846
Rp1847
sS'2016-09-30'
p1848
g2
(g6
S'\x94\x05^Y\xe0\x95*@'
p1849
tp1850
Rp1851
sS'2017-05-21'
p1852
g2
(g6
S'\x96\xaa\xf5D\xa8fa@'
p1853
tp1854
Rp1855
sS'2016-12-31'
p1856
g2
(g6
S'l\xe7\xfb\xa9\xf1r @'
p1857
tp1858
Rp1859
sS'2016-12-30'
p1860
g2
(g6
S'\x13,#\x0f\xa2\xac @'
p1861
tp1862
Rp1863
sS'2017-04-04'
p1864
g2
(g6
S'\x9ac\xbf\xb2\x8f\nF@'
p1865
tp1866
Rp1867
sS'2017-04-05'
p1868
g2
(g6
S'\x8d\x94\xa9\xc0\x84\xc8F@'
p1869
tp1870
Rp1871
sS'2017-04-02'
p1872
g2
(g6
S'\x04\xa6<z\xef\xe1G@'
p1873
tp1874
Rp1875
sS'2017-04-03'
p1876
g2
(g6
S'\xa5\xddO\xec\xd1hF@'
p1877
tp1878
Rp1879
sS'2017-04-01'
p1880
g2
(g6
S':h\x8am\xb37I@'
p1881
tp1882
Rp1883
sS'2017-03-07'
p1884
g2
(g6
S'\x8e\x97n\x12\x83\xfc2@'
p1885
tp1886
Rp1887
sS'2017-04-08'
p1888
g2
(g6
S'\rA\t\x83(`F@'
p1889
tp1890
Rp1891
sS'2017-03-06'
p1892
g2
(g6
S'?\x05\xd0\xa7\xa6\xda3@'
p1893
tp1894
Rp1895
sS'2017-01-05'
p1896
g2
(g6
S'$V\x06u\x81\xfa$@'
p1897
tp1898
Rp1899
sS'2017-01-04'
p1900
g2
(g6
S'\xc3+m|\xfb[&@'
p1901
tp1902
Rp1903
sS'2017-01-07'
p1904
g2
(g6
S'\x92$I\x92$\xc9#@'
p1905
tp1906
Rp1907
sS'2017-01-06'
p1908
g2
(g6
S'\xce\xa0i\xe9\xfd\xd1#@'
p1909
tp1910
Rp1911
sS'2017-01-01'
p1912
g2
(g6
S'0W\x02\xe8u\x87 @'
p1913
tp1914
Rp1915
sS'2017-05-25'
p1916
g2
(g6
S'\xf1\x83~f^\xfag@'
p1917
tp1918
Rp1919
sS'2017-01-03'
p1920
g2
(g6
S'\x85\x8aiP\x00q#@'
p1921
tp1922
Rp1923
sS'2017-01-02'
p1924
g2
(g6
S'\x96\xcd?c\x9a\xcc @'
p1925
tp1926
Rp1927
sS'2017-05-24'
p1928
g2
(g6
S'\x96\xe3|F})h@'
p1929
tp1930
Rp1931
sS'2017-01-09'
p1932
g2
(g6
S'\xb16"t,\x0b%@'
p1933
tp1934
Rp1935
sS'2017-01-08'
p1936
g2
(g6
S'\xbey5\xf1\xac\x18$@'
p1937
tp1938
Rp1939
sS'2017-08-11'
p1940
g2
(g6
S'\x9a+\xd5X\x82\x10s@'
p1941
tp1942
Rp1943
sS'2017-08-10'
p1944
g2
(g6
S'Y\xba#\x932\xe9r@'
p1945
tp1946
Rp1947
sS'2017-08-13'
p1948
g2
(g6
S'\x8a\x1a\xfcOPor@'
p1949
tp1950
Rp1951
sS'2017-08-12'
p1952
g2
(g6
S'\xb2\xea\xd3\x07?.s@'
p1953
tp1954
Rp1955
sS'2017-08-15'
p1956
g2
(g6
S'\xaf\xaa\xb50\x07\xc1q@'
p1957
tp1958
Rp1959
sS'2017-08-14'
p1960
g2
(g6
S'dg[\xb1g\x97r@'
p1961
tp1962
Rp1963
sS'2017-08-17'
p1964
g2
(g6
S'QCWV\x14\xfdr@'
p1965
tp1966
Rp1967
sS'2017-08-16'
p1968
g2
(g6
S"\x96\x98'z\xd5ir@"
p1969
tp1970
Rp1971
sS'2017-08-19'
p1972
g2
(g6
S'\xe7\xdf|\xfb\xc31r@'
p1973
tp1974
Rp1975
sS'2017-08-18'
p1976
g2
(g6
S'NZ\xb4\xf4\x0f\x84r@'
p1977
tp1978
Rp1979
sS'2016-11-10'
p1980
g2
(g6
S'\xf5\xb9\xda\x8a\xfde%@'
p1981
tp1982
Rp1983
sS'2016-05-28'
p1984
g2
(g6
S"\xd5b1l\xd1C'@"
p1985
tp1986
Rp1987
sS'2016-05-29'
p1988
g2
(g6
S'\xac\x01e\x90\xdd\xea(@'
p1989
tp1990
Rp1991
sS'2017-03-14'
p1992
g2
(g6
S'\x98\xd6b^\xd4\xb5<@'
p1993
tp1994
Rp1995
sS'2017-03-15'
p1996
g2
(g6
S'\x86\xfcDqSxA@'
p1997
tp1998
Rp1999
sS'2017-03-16'
p2000
g2
(g6
S'\xc1\xc3\xe3\xc65\xc8E@'
p2001
tp2002
Rp2003
sS'2016-11-11'
p2004
g2
(g6
S'o\x8c`\xa2\xbf\xb3$@'
p2005
tp2006
Rp2007
sS'2017-03-10'
p2008
g2
(g6
S'\xcf\xc7Y\xbc\xb0\xa62@'
p2009
tp2010
Rp2011
sS'2017-03-11'
p2012
g2
(g6
S'\xbfFmK\xb1\x984@'
p2013
tp2014
Rp2015
sS'2017-03-12'
p2016
g2
(g6
S'S\x96$\xcc\x0538@'
p2017
tp2018
Rp2019
sS'2017-03-13'
p2020
g2
(g6
S'0\x83<+\xa4\x95<@'
p2021
tp2022
Rp2023
sS'2017-03-18'
p2024
g2
(g6
S'\xdf8\x17sP\x9bB@'
p2025
tp2026
Rp2027
sS'2017-03-19'
p2028
g2
(g6
S'Y\xcew\xa3q\x9cD@'
p2029
tp2030
Rp2031
sS'2017-09-09'
p2032
g2
(g6
S'\xcc-\xf7\x18\r\xe5r@'
p2033
tp2034
Rp2035
sS'2017-09-08'
p2036
g2
(g6
S'\xd0\x88\x08j\xf2fs@'
p2037
tp2038
Rp2039
sS'2017-09-05'
p2040
g2
(g6
S'Oc\xf6J\xc7\x80s@'
p2041
tp2042
Rp2043
sS'2017-09-04'
p2044
g2
(g6
S'1\x1b\xa0\xa5\xe6,q@'
p2045
tp2046
Rp2047
sS'2017-09-07'
p2048
g2
(g6
S'\xa7\xd2\x97hl\xc0t@'
p2049
tp2050
Rp2051
sS'2017-09-06'
p2052
g2
(g6
S'\x1746^(\xbbt@'
p2053
tp2054
Rp2055
sS'2016-11-30'
p2056
g2
(g6
S'\x17\xc5>\x08Z_!@'
p2057
tp2058
Rp2059
sS'2017-09-03'
p2060
g2
(g6
S'\xb5\xd9\xf9\xeb\xb0\xe2u@'
p2061
tp2062
Rp2063
sS'2017-09-02'
p2064
g2
(g6
S'\xbcV\x0bKk<v@'
p2065
tp2066
Rp2067
sS'2017-07-07'
p2068
g2
(g6
S'\xa3\xa3\xd3\xc7\x99\xb9n@'
p2069
tp2070
Rp2071
sS'2017-07-06'
p2072
g2
(g6
S'GJ\xee\xdf\x1f\xa9p@'
p2073
tp2074
Rp2075
sS'2017-07-05'
p2076
g2
(g6
S'\n\xcdD\x92\xa0vp@'
p2077
tp2078
Rp2079
sS'2017-07-04'
p2080
g2
(g6
S'\x9f\xe9\xa5{,\x10q@'
p2081
tp2082
Rp2083
sS'2017-07-03'
p2084
g2
(g6
S'XMQ\\\xa0nq@'
p2085
tp2086
Rp2087
sS'2017-07-02'
p2088
g2
(g6
S'\x1e\n\xd4\xb4b\x12q@'
p2089
tp2090
Rp2091
sS'2017-07-01'
p2092
g2
(g6
S'R\xf48!\x1f\xa8p@'
p2093
tp2094
Rp2095
sS'2017-07-09'
p2096
g2
(g6
S'\xc9\xcf\xe5\xdd\x13hn@'
p2097
tp2098
Rp2099
sS'2017-07-08'
p2100
g2
(g6
S'\xb5\xb6]G\x17Vn@'
p2101
tp2102
Rp2103
sS'2017-09-30'
p2104
g2
(g6
S'\x05\tC\xb76\xc4r@'
p2105
tp2106
Rp2107
sS'2016-08-07'
p2108
g2
(g6
S'\xbb%N\xfd\x9e\x1b&@'
p2109
tp2110
Rp2111
sS'2016-08-06'
p2112
g2
(g6
S'#\x01\xdf\xbc\x9a\xf8%@'
p2113
tp2114
Rp2115
sS'2016-08-05'
p2116
g2
(g6
S'[F\x98Pot&@'
p2117
tp2118
Rp2119
sS'2016-08-04'
p2120
g2
(g6
S')\x91\xf7]\xc4j&@'
p2121
tp2122
Rp2123
sS'2016-08-03'
p2124
g2
(g6
S'\xccQ\xca\xab\x8b\xcc#@'
p2125
tp2126
Rp2127
sS'2016-08-02'
p2128
g2
(g6
S'\x01c\x97\x12n\xba"@'
p2129
tp2130
Rp2131
sS'2016-08-01'
p2132
g2
(g6
S'\x9a\xbf~\xd7\xc9\xd5&@'
p2133
tp2134
Rp2135
sS'2016-08-09'
p2136
g2
(g6
S"\x91;\xe6\x90;\xe6'@"
p2137
tp2138
Rp2139
sS'2016-08-08'
p2140
g2
(g6
S'\xdc\x9e*\x1e\xef\xa0&@'
p2141
tp2142
Rp2143
sS'2017-04-14'
p2144
g2
(g6
S'R\xf1N\x8f\xfb\xc5G@'
p2145
tp2146
Rp2147
sS'2016-10-20'
p2148
g2
(g6
S'w\x80r\x07(\x17(@'
p2149
tp2150
Rp2151
sS'2016-10-21'
p2152
g2
(g6
S'\x19\xe6\xb2\x7fL\x19(@'
p2153
tp2154
Rp2155
sS'2016-10-22'
p2156
g2
(g6
S'g\xd8\x15 \xf7\x1a(@'
p2157
tp2158
Rp2159
sS'2016-10-23'
p2160
g2
(g6
S"\xcc\xe2N\x10'\x13(@"
p2161
tp2162
Rp2163
sS'2016-10-24'
p2164
g2
(g6
S"\xb9\x1e\x85\xebQ\xb8'@"
p2165
tp2166
Rp2167
sS'2016-10-25'
p2168
g2
(g6
S"\xb1Us\x9e\xae<'@"
p2169
tp2170
Rp2171
sS'2016-10-26'
p2172
g2
(g6
S'\x0f2Tv\x98\xfa&@'
p2173
tp2174
Rp2175
sS'2016-10-27'
p2176
g2
(g6
S'\xdb0K\xbd\xab\xdf&@'
p2177
tp2178
Rp2179
sS'2016-10-28'
p2180
g2
(g6
S'V\x83\xe7\x08\x14m&@'
p2181
tp2182
Rp2183
sS'2016-10-29'
p2184
g2
(g6
S'\xc8%\xa6\x80\xbc\xeb$@'
p2185
tp2186
Rp2187
sS'2017-03-17'
p2188
g2
(g6
S'{\xf5\t\xb8\xff`F@'
p2189
tp2190
Rp2191
sS'2017-07-20'
p2192
g2
(g6
S'I\xd4\xa4I\x87\x07l@'
p2193
tp2194
Rp2195
sS'2016-07-24'
p2196
g2
(g6
S'IEK\xc2\x8f\x9b*@'
p2197
tp2198
Rp2199
sS'2016-07-25'
p2200
g2
(g6
S'\x19\xed7\xe5\xb9\x04+@'
p2201
tp2202
Rp2203
sS'2016-07-26'
p2204
g2
(g6
S'Au\xa8\xdb\x0e")@'
p2205
tp2206
Rp2207
sS'2016-07-27'
p2208
g2
(g6
S'\x905\x8c\xf6\x9b\xf2)@'
p2209
tp2210
Rp2211
sS'2016-07-20'
p2212
g2
(g6
S'\x91\x90\x90\x90\x90\x10*@'
p2213
tp2214
Rp2215
sS'2016-07-21'
p2216
g2
(g6
S'\x94\xd7P^C\x99)@'
p2217
tp2218
Rp2219
sS'2016-07-22'
p2220
g2
(g6
S'\xb4\xf4\x9f\xcf\xe4\xc8,@'
p2221
tp2222
Rp2223
sS'2016-07-23'
p2224
g2
(g6
S'~-g<B\x07-@'
p2225
tp2226
Rp2227
sS'2016-07-28'
p2228
g2
(g6
S'\xe9\xca\xb8c\xdf\xe6)@'
p2229
tp2230
Rp2231
sS'2016-07-29'
p2232
g2
(g6
S'H\xe1z\x14\xae\xc7)@'
p2233
tp2234
Rp2235
sS'2016-06-30'
p2236
g2
(g6
S'\x18%@\x04\xd2\xe5(@'
p2237
tp2238
Rp2239
sS'2017-10-20'
p2240
g2
(g6
S'\xc1\x91\xaa\xf5\xe2\x0bs@'
p2241
tp2242
Rp2243
sS'2017-10-23'
p2244
g2
(g6
S'V\xf4\tHu\x00r@'
p2245
tp2246
Rp2247
sS'2017-10-22'
p2248
g2
(g6
S'\x87M\xfc\xcd\xd8ir@'
p2249
tp2250
Rp2251
sS'2017-10-25'
p2252
g2
(g6
S'\xabw\xf8\x81\xa8\x88r@'
p2253
tp2254
Rp2255
sS'2017-10-24'
p2256
g2
(g6
S'\x06Y\xdd\xc3n\xe6r@'
p2257
tp2258
Rp2259
sS'2017-10-27'
p2260
g2
(g6
S'J\xa7\xebZ`{r@'
p2261
tp2262
Rp2263
sS'2017-10-26'
p2264
g2
(g6
S'O\x88F=\x01\x8cr@'
p2265
tp2266
Rp2267
sS'2017-10-29'
p2268
g2
(g6
S'X\xe41\xd6\x90\x07s@'
p2269
tp2270
Rp2271
sS'2017-10-28'
p2272
g2
(g6
S'\x1c^\xdd,\x9fhr@'
p2273
tp2274
Rp2275
s.